target datalayout = "e-m:e-p270:32:32-p271:32:32-p272:64:64-i64:64-i128:128-f80:128-n8:16:32:64-S128"
target triple = "x86_64-pc-linux-gnu"

@.str.5 = private unnamed_addr constant [112 x i8] c"generated/home/dtcxzyw/WorkSpace/Projects/compilers/llvm-opt-benchmark/bench/z3/z3/src/smt/smt_clause_proof.cpp\00", align 1
@.str.6 = private unnamed_addr constant [29 x i8] c"UNEXPECTED CODE WAS REACHED.\00", align 1

; Function Attrs: mustprogress uwtable
define hidden noundef i32 @_ZN3smt12clause_proof7kind2stENS_11clause_kindE(ptr noundef nonnull align 8 dereferenceable(864) %0, i32 noundef %1) #6 align 2 {
  %3 = alloca i32, align 4
  %4 = alloca ptr, align 8
  %5 = alloca i32, align 4
  store ptr %0, ptr %4, align 8, !tbaa !28
  store i32 %1, ptr %5, align 4, !tbaa !602
  %6 = load i32, ptr %5, align 4, !tbaa !602
  switch i32 %6, label %11 [
    i32 0, label %7
    i32 1, label %8
    i32 2, label %9
    i32 3, label %10
  ]

7:                                                ; preds = %2
  store i32 1, ptr %3, align 4
  br label %12

8:                                                ; preds = %2
  store i32 3, ptr %3, align 4
  br label %12

9:                                                ; preds = %2
  store i32 0, ptr %3, align 4
  br label %12

10:                                               ; preds = %2
  store i32 2, ptr %3, align 4
  br label %12

11:                                               ; preds = %2
  call void @_Z26notify_assertion_violationPKciS0_(ptr noundef @.str.5, i32 noundef 57, ptr noundef @.str.6)
  call void @_Z18invoke_exit_actionj(i32 noundef 114)
  store i32 0, ptr %3, align 4
  br label %12

12:                                               ; preds = %11, %10, %9, %8, %7
  %13 = load i32, ptr %3, align 4
  ret i32 %13
}