; Function Attrs: mustprogress uwtable
define hidden noundef range(i32 0, 4) i32 @_ZN3smt12clause_proof7kind2stENS_11clause_kindE(ptr noundef nonnull readnone align 8 captures(none) dereferenceable(864) %0, i32 noundef %1) local_unnamed_addr #4 align 2 {
  %3 = icmp ult i32 %1, 4
  br i1 %3, label %switch.lookup, label %4

4:                                                ; preds = %2
  tail call void @_Z26notify_assertion_violationPKciS0_(ptr noundef nonnull @.str.5, i32 noundef 57, ptr noundef nonnull @.str.6)
  tail call void @_Z18invoke_exit_actionj(i32 noundef 114)
  br label %6

switch.lookup:                                    ; preds = %2
  %5 = zext nneg i32 %1 to i64
  %switch.gep = getelementptr inbounds nuw [4 x i32], ptr @switch.table._ZN3smt12clause_proof3addEN3sat7literalES2_NS_11clause_kindEPNS_13justificationEPK7sbufferIS2_Lj16EE, i64 0, i64 %5
  %switch.load = load i32, ptr %switch.gep, align 4
  br label %6

6:                                                ; preds = %switch.lookup, %4
  %.0 = phi i32 [ 0, %4 ], [ %switch.load, %switch.lookup ]
  ret i32 %.0
}